; ModuleID = 'source-C-CXX/44/455.c'
source_filename = "source-C-CXX/44/455.c"
target datalayout = "e-m:e-p270:32:32-p271:32:32-p272:64:64-i64:64-f80:128-n8:16:32:64-S128"
target triple = "x86_64-pc-linux-gnu"

@.str = private unnamed_addr constant [4 x i8] c"%s \00", align 1
@.str.1 = private unnamed_addr constant [3 x i8] c"%s\00", align 1
@.str.2 = private unnamed_addr constant [3 x i8] c"%d\00", align 1

; Function Attrs: nofree nounwind sspstrong uwtable
define dso_local void @main() local_unnamed_addr #0 {
  %1 = alloca [50 x i8], align 16
  %2 = alloca [50 x i8], align 16
  %3 = getelementptr inbounds [50 x i8], [50 x i8]* %1, i64 0, i64 0
  call void @llvm.lifetime.start.p0i8(i64 50, i8* nonnull %3) #3
  %4 = getelementptr inbounds [50 x i8], [50 x i8]* %2, i64 0, i64 0
  call void @llvm.lifetime.start.p0i8(i64 50, i8* nonnull %4) #3
  %5 = call i32 (i8*, ...) @__isoc99_scanf(i8* getelementptr inbounds ([4 x i8], [4 x i8]* @.str, i64 0, i64 0), i8* nonnull %3)
  %6 = call i32 (i8*, ...) @__isoc99_scanf(i8* getelementptr inbounds ([3 x i8], [3 x i8]* @.str.1, i64 0, i64 0), i8* nonnull %4)
  %7 = load i8, i8* %3, align 16
  %8 = load i8, i8* %4, align 16, !tbaa !5
  %9 = icmp eq i8 %8, 0
  br i1 %9, label %48, label %10

10:                                               ; preds = %0
  %11 = icmp eq i8 %7, 0
  br i1 %11, label %12, label %18

12:                                               ; preds = %10, %12
  %13 = phi i64 [ %14, %12 ], [ 0, %10 ]
  %14 = add nuw nsw i64 %13, 1
  %15 = getelementptr inbounds [50 x i8], [50 x i8]* %2, i64 0, i64 %14
  %16 = load i8, i8* %15, align 1, !tbaa !5
  %17 = icmp eq i8 %16, 0
  br i1 %17, label %48, label %12, !llvm.loop !8

18:                                               ; preds = %10, %40
  %19 = phi i8 [ %46, %40 ], [ %8, %10 ]
  %20 = phi i32 [ %42, %40 ], [ undef, %10 ]
  %21 = phi i32 [ %43, %40 ], [ 0, %10 ]
  %22 = icmp eq i8 %19, %7
  br i1 %22, label %23, label %40

23:                                               ; preds = %18
  %24 = sext i32 %21 to i64
  br label %25

25:                                               ; preds = %23, %32
  %26 = phi i64 [ %24, %23 ], [ %33, %32 ]
  %27 = phi i64 [ 0, %23 ], [ %34, %32 ]
  %28 = phi i8 [ %7, %23 ], [ %36, %32 ]
  %29 = getelementptr inbounds [50 x i8], [50 x i8]* %2, i64 0, i64 %26
  %30 = load i8, i8* %29, align 1, !tbaa !5
  %31 = icmp eq i8 %30, %28
  br i1 %31, label %32, label %38

32:                                               ; preds = %25
  %33 = add i64 %26, 1
  %34 = add nuw i64 %27, 1
  %35 = getelementptr inbounds [50 x i8], [50 x i8]* %1, i64 0, i64 %34
  %36 = load i8, i8* %35, align 1, !tbaa !5
  %37 = icmp eq i8 %36, 0
  br i1 %37, label %48, label %25, !llvm.loop !10

38:                                               ; preds = %25
  %39 = trunc i64 %26 to i32
  br label %40

40:                                               ; preds = %38, %18
  %41 = phi i32 [ %21, %18 ], [ %39, %38 ]
  %42 = phi i32 [ %20, %18 ], [ %21, %38 ]
  %43 = add nsw i32 %41, 1
  %44 = sext i32 %43 to i64
  %45 = getelementptr inbounds [50 x i8], [50 x i8]* %2, i64 0, i64 %44
  %46 = load i8, i8* %45, align 1, !tbaa !5
  %47 = icmp eq i8 %46, 0
  br i1 %47, label %48, label %18, !llvm.loop !8

48:                                               ; preds = %40, %32, %12, %0
  %49 = phi i32 [ undef, %0 ], [ undef, %12 ], [ %21, %32 ], [ %42, %40 ]
  %50 = call i32 (i8*, ...) @printf(i8* nonnull dereferenceable(1) getelementptr inbounds ([3 x i8], [3 x i8]* @.str.2, i64 0, i64 0), i32 %49)
  call void @llvm.lifetime.end.p0i8(i64 50, i8* nonnull %4) #3
  call void @llvm.lifetime.end.p0i8(i64 50, i8* nonnull %3) #3
  ret void
}

; Function Attrs: argmemonly mustprogress nofree nosync nounwind willreturn
declare void @llvm.lifetime.start.p0i8(i64 immarg, i8* nocapture) #1

; Function Attrs: nofree nounwind
declare noundef i32 @__isoc99_scanf(i8* nocapture noundef readonly, ...) local_unnamed_addr #2

; Function Attrs: nofree nounwind
declare noundef i32 @printf(i8* nocapture noundef readonly, ...) local_unnamed_addr #2

; Function Attrs: argmemonly mustprogress nofree nosync nounwind willreturn
declare void @llvm.lifetime.end.p0i8(i64 immarg, i8* nocapture) #1


!llvm.module.flags = !{!0, !1, !2, !3}
!llvm.ident = !{!4}

!0 = !{i32 1, !"wchar_size", i32 4}
!1 = !{i32 7, !"PIC Level", i32 2}
!2 = !{i32 7, !"PIE Level", i32 2}
!3 = !{i32 7, !"uwtable", i32 1}
!4 = !{!"clang version 13.0.0"}
!5 = !{!6, !6, i64 0}
!6 = !{!"omnipotent char", !7, i64 0}
!7 = !{!"Simple C/C++ TBAA"}
!8 = distinct !{!8, !9}
!9 = !{!"llvm.loop.mustprogress"}
!10 = distinct !{!10, !9}
